; Function Attrs: mustprogress uwtable
define hidden noundef nonnull align 8 dereferenceable(8) ptr @_ZN3smt7displayERSoN3sat7literalER11ast_managerPKP4expr(ptr noundef nonnull returned align 8 dereferenceable(8) %0, i32 %1, ptr noundef nonnull align 8 dereferenceable(976) %2, ptr noundef readonly captures(none) %3) local_unnamed_addr #4 {
  %5 = load i32, ptr @_ZN3smtL12true_literalE, align 4, !tbaa !3
  %6 = icmp eq i32 %1, %5
  br i1 %6, label %7, label %9

7:                                                ; preds = %4
  %8 = tail call noundef nonnull align 8 dereferenceable(8) ptr @_ZSt16__ostream_insertIcSt11char_traitsIcEERSt13basic_ostreamIT_T0_ES6_PKS3_l(ptr noundef nonnull align 8 dereferenceable(8) %0, ptr noundef nonnull @.str, i64 noundef 4)
  br label %32

9:                                                ; preds = %4
  %10 = load i32, ptr @_ZN3smtL13false_literalE, align 4, !tbaa !3
  %11 = icmp eq i32 %1, %10
  br i1 %11, label %12, label %14

12:                                               ; preds = %9
  %13 = tail call noundef nonnull align 8 dereferenceable(8) ptr @_ZSt16__ostream_insertIcSt11char_traitsIcEERSt13basic_ostreamIT_T0_ES6_PKS3_l(ptr noundef nonnull align 8 dereferenceable(8) %0, ptr noundef nonnull @.str.3, i64 noundef 5)
  br label %32

14:                                               ; preds = %9
  %15 = icmp eq i32 %1, -2
  br i1 %15, label %16, label %18

16:                                               ; preds = %14
  %17 = tail call noundef nonnull align 8 dereferenceable(8) ptr @_ZSt16__ostream_insertIcSt11char_traitsIcEERSt13basic_ostreamIT_T0_ES6_PKS3_l(ptr noundef nonnull align 8 dereferenceable(8) %0, ptr noundef nonnull @.str.4, i64 noundef 4)
  br label %32

18:                                               ; preds = %14
  %19 = and i32 %1, 1
  %.not = icmp eq i32 %19, 0
  br i1 %.not, label %27, label %20

20:                                               ; preds = %18
  %21 = tail call noundef nonnull align 8 dereferenceable(8) ptr @_ZSt16__ostream_insertIcSt11char_traitsIcEERSt13basic_ostreamIT_T0_ES6_PKS3_l(ptr noundef nonnull align 8 dereferenceable(8) %0, ptr noundef nonnull @.str.5, i64 noundef 5)
  %22 = lshr i32 %1, 1
  %23 = zext nneg i32 %22 to i64
  %24 = getelementptr inbounds nuw ptr, ptr %3, i64 %23
  %25 = load ptr, ptr %24, align 8, !tbaa !8
  tail call void @_Z17ast_ll_bounded_ppRSoR11ast_managerP3astj(ptr noundef nonnull align 8 dereferenceable(8) %0, ptr noundef nonnull align 8 dereferenceable(976) %2, ptr noundef %25, i32 noundef 3)
  %26 = tail call noundef nonnull align 8 dereferenceable(8) ptr @_ZSt16__ostream_insertIcSt11char_traitsIcEERSt13basic_ostreamIT_T0_ES6_PKS3_l(ptr noundef nonnull align 8 dereferenceable(8) %0, ptr noundef nonnull @.str.6, i64 noundef 1)
  br label %32

27:                                               ; preds = %18
  %28 = lshr exact i32 %1, 1
  %29 = zext nneg i32 %28 to i64
  %30 = getelementptr inbounds nuw ptr, ptr %3, i64 %29
  %31 = load ptr, ptr %30, align 8, !tbaa !8
  tail call void @_Z17ast_ll_bounded_ppRSoR11ast_managerP3astj(ptr noundef nonnull align 8 dereferenceable(8) %0, ptr noundef nonnull align 8 dereferenceable(976) %2, ptr noundef %31, i32 noundef 3)
  br label %32

32:                                               ; preds = %12, %20, %27, %16, %7
  ret ptr %0
}